target datalayout = "e-m:e-p270:32:32-p271:32:32-p272:64:64-i64:64-i128:128-f80:128-n8:16:32:64-S128"
target triple = "x86_64-pc-linux-gnu"

%struct.Curl_cfilter = type { ptr, ptr, ptr, ptr, i32, i8 }
%struct.Curl_cftype = type { ptr, i32, i32, ptr, ptr, ptr, ptr, ptr, ptr, ptr, ptr, ptr, ptr, ptr, ptr, ptr }
%struct.connectdata = type { %struct.Curl_llist_node, ptr, ptr, i64, ptr, i64, ptr, ptr, %struct.hostname, ptr, ptr, %struct.hostname, %struct.proxy_info, %struct.proxy_info, %struct.ip_quadruple, %struct.ip_quadruple, ptr, ptr, ptr, ptr, ptr, %struct.curltime, %struct.curltime, %struct.curltime, [2 x i32], [2 x ptr], [2 x ptr], [2 x ptr], %struct.anon, %struct.easy_pollset, %struct.ssl_primary_config, %struct.ssl_primary_config, %struct.ConnectBits, ptr, ptr, %struct.curltime, i32, i32, %struct.Curl_llist, i32, i32, %struct.ntlmdata, %struct.ntlmdata, %union.anon, ptr, i16, i32, i32, i32, i32, i16, i16, i8, i8, i8, i8, i8, i8, i8 }
%struct.Curl_llist_node = type { ptr, ptr, ptr, ptr }
%struct.hostname = type { ptr, ptr, ptr, ptr }
%struct.proxy_info = type { %struct.hostname, i32, i8, ptr, ptr }
%struct.ip_quadruple = type { [46 x i8], [46 x i8], i32, i32 }
%struct.anon = type { [2 x %struct.curltime], i32 }
%struct.easy_pollset = type { [5 x i32], i32, [5 x i8] }
%struct.ssl_primary_config = type { ptr, ptr, ptr, ptr, ptr, ptr, ptr, ptr, ptr, ptr, ptr, ptr, i8, i32, i8, i8 }
%struct.ConnectBits = type { i64 }
%struct.curltime = type { i64, i32 }
%struct.Curl_llist = type { ptr, ptr, ptr, i64 }
%struct.ntlmdata = type { i32, [8 x i8], i32, ptr }
%union.anon = type { %struct.ftp_conn }
%struct.ftp_conn = type { %struct.pingpong, ptr, ptr, ptr, ptr, ptr, ptr, ptr, i8, i64, ptr, i64, i32, i32, i32, i32, i32, i16, i8, i8, i8, i8, i8 }
%struct.pingpong = type { i64, i8, ptr, i64, i64, %struct.curltime, i64, %struct.dynbuf, %struct.dynbuf, i64, i64, ptr, ptr }
%struct.dynbuf = type { ptr, i64, i64, i64 }
%struct.Curl_easy = type { i32, i64, i64, ptr, %struct.Curl_llist_node, %struct.Curl_llist_node, i32, i32, %struct.Curl_message, %struct.easy_pollset, %struct.Names, ptr, ptr, ptr, %struct.SingleRequest, %struct.UserDefined, ptr, ptr, %struct.Progress, %struct.UrlState, ptr, %struct.PureInfo, %struct.curl_tlssessioninfo }
%struct.Curl_message = type { %struct.Curl_llist_node, %struct.CURLMsg }
%struct.CURLMsg = type { i32, ptr, %union.anon.0 }
%union.anon.0 = type { ptr }
%struct.Names = type { ptr, i32 }
%struct.SingleRequest = type <{ i64, i64, i64, i64, %struct.curltime, i32, i32, i32, i32, i64, i32, i32, i32, i32, ptr, ptr, %struct.bufq, i64, i64, ptr, ptr, %union.anon.1, ptr, i8, i32, [3 x i8] }>
%struct.bufq = type { ptr, ptr, ptr, ptr, i64, i64, i64, i32 }
%union.anon.1 = type { ptr }
%struct.UserDefined = type <{ ptr, ptr, ptr, ptr, ptr, ptr, i16, [6 x i8], i64, i64, i64, ptr, ptr, i64, i16, i16, [4 x i8], ptr, ptr, ptr, ptr, ptr, ptr, ptr, ptr, ptr, ptr, ptr, ptr, ptr, ptr, ptr, ptr, ptr, ptr, ptr, ptr, ptr, ptr, ptr, i32, i32, i32, i32, i32, [4 x i8], i64, i64, i64, i64, i64, i64, i64, i64, ptr, ptr, %struct.curl_mimepart, ptr, ptr, i64, i8, i8, i8, [5 x i8], %struct.ssl_config_data, %struct.ssl_config_data, ptr, i16, i8, i8, [4 x i8], %struct.ssl_general_config, i32, i32, i32, [4 x i8], ptr, ptr, i8, [7 x i8], i64, i8, i8, i8, i8, i32, ptr, ptr, ptr, i8, i8, [2 x i8], i32, [63 x ptr], [8 x ptr], i32, i32, i32, [4 x i8], ptr, ptr, ptr, ptr, ptr, i8, [3 x i8], i32, i32, i32, i64, %struct.Curl_data_priority, ptr, ptr, i64, ptr, i64, ptr, ptr, ptr, i8, [3 x i8], i32, i8, i8, i64, [6 x i8] }>
%struct.curl_mimepart = type { ptr, ptr, i32, i32, ptr, ptr, ptr, ptr, ptr, ptr, ptr, ptr, ptr, ptr, ptr, i64, %struct.mime_state, ptr, %struct.mime_encoder_state, i64 }
%struct.mime_state = type { i32, ptr, i64 }
%struct.mime_encoder_state = type { i64, i64, i64, [256 x i8] }
%struct.ssl_config_data = type { %struct.ssl_primary_config, i64, ptr, ptr, ptr, ptr, ptr, ptr, ptr, i16 }
%struct.ssl_general_config = type { i64, i32 }
%struct.Curl_data_priority = type { ptr, ptr, i32, i8 }
%struct.Progress = type { i64, %struct.pgrs_dir, %struct.pgrs_dir, i64, i64, i32, i32, i64, i64, i64, i64, i64, i64, i64, i64, i64, %struct.curltime, %struct.curltime, %struct.curltime, %struct.curltime, [6 x i64], [6 x %struct.curltime], i32, i8 }
%struct.pgrs_dir = type { i64, i64, i64, %struct.pgrs_measure }
%struct.pgrs_measure = type { %struct.curltime, i64 }
%struct.UrlState = type { %struct.curltime, i64, i64, %struct.dynbuf, ptr, i64, ptr, i32, i32, i32, ptr, i64, i32, i64, i32, ptr, %struct.digestdata, %struct.digestdata, %struct.auth, %struct.auth, %struct.Curl_async, ptr, %struct.curltime, %struct.Curl_tree, %struct.Curl_llist, [15 x %struct.time_node], ptr, ptr, i64, i64, %struct.Curl_data_priority, ptr, ptr, ptr, %struct.urlpieces, ptr, ptr, ptr, ptr, ptr, i64, %struct.dynbuf, %struct.Curl_llist, [2 x %struct.curl_header], ptr, i32, ptr, ptr, %struct.store_netrc, %struct.dynamically_allocated_data, i8, i8, i8, i8, i32 }
%struct.digestdata = type { ptr, ptr, ptr, ptr, ptr, ptr, i32, i8, i8 }
%struct.auth = type { i64, i64, i64, i8 }
%struct.Curl_async = type { ptr, ptr, ptr, ptr, i32, i32, i8 }
%struct.Curl_tree = type { ptr, ptr, ptr, ptr, %struct.curltime, ptr }
%struct.time_node = type { %struct.Curl_llist_node, %struct.curltime, i32 }
%struct.urlpieces = type { ptr, ptr, ptr, ptr, ptr, ptr, ptr, ptr }
%struct.curl_header = type { ptr, ptr, i64, i64, i32, ptr }
%struct.store_netrc = type { %struct.dynbuf, ptr, i8 }
%struct.dynamically_allocated_data = type { ptr, ptr, ptr, ptr, ptr, ptr, ptr, ptr, ptr, ptr, ptr, ptr, ptr }
%struct.PureInfo = type { i32, i32, i32, i64, i64, i64, i64, i64, ptr, ptr, i64, i32, %struct.ip_quadruple, i32, ptr, i32, %struct.curl_certinfo, i32, i8 }
%struct.curl_certinfo = type { i32, ptr }
%struct.curl_tlssessioninfo = type { i32, ptr }

@.str.5 = private unnamed_addr constant [26 x i8] c"send: no filter connected\00", align 1

; Function Attrs: nounwind uwtable
define dso_local i64 @Curl_cf_send(ptr noundef %0, i32 noundef %1, ptr noundef %2, i64 noundef %3, i1 noundef zeroext %4, ptr noundef %5) #0 {
  %7 = alloca i64, align 8
  %8 = alloca ptr, align 8
  %9 = alloca i32, align 4
  %10 = alloca ptr, align 8
  %11 = alloca i64, align 8
  %12 = alloca i8, align 1
  %13 = alloca ptr, align 8
  %14 = alloca ptr, align 8
  %15 = alloca i64, align 8
  %16 = alloca i32, align 4
  store ptr %0, ptr %8, align 8, !tbaa !9
  store i32 %1, ptr %9, align 4, !tbaa !53
  store ptr %2, ptr %10, align 8, !tbaa !57
  store i64 %3, ptr %11, align 8, !tbaa !58
  %17 = zext i1 %4 to i8
  store i8 %17, ptr %12, align 1, !tbaa !13
  store ptr %5, ptr %13, align 8, !tbaa !57
  call void @llvm.lifetime.start.p0(i64 8, ptr %14) #5
  br label %18

18:                                               ; preds = %6
  br label %19

19:                                               ; preds = %18
  br label %20

20:                                               ; preds = %19
  br label %21

21:                                               ; preds = %20
  br label %22

22:                                               ; preds = %21
  br label %23

23:                                               ; preds = %22
  %24 = load ptr, ptr %13, align 8, !tbaa !57
  store i32 0, ptr %24, align 4, !tbaa !53
  %25 = load ptr, ptr %8, align 8, !tbaa !9
  %26 = getelementptr inbounds nuw %struct.Curl_easy, ptr %25, i32 0, i32 3
  %27 = load ptr, ptr %26, align 8, !tbaa !72
  %28 = getelementptr inbounds nuw %struct.connectdata, ptr %27, i32 0, i32 27
  %29 = load i32, ptr %9, align 4, !tbaa !53
  %30 = sext i32 %29 to i64
  %31 = getelementptr inbounds [2 x ptr], ptr %28, i64 0, i64 %30
  %32 = load ptr, ptr %31, align 8, !tbaa !4
  store ptr %32, ptr %14, align 8, !tbaa !4
  br label %33

33:                                               ; preds = %46, %23
  %34 = load ptr, ptr %14, align 8, !tbaa !4
  %35 = icmp ne ptr %34, null
  br i1 %35, label %36, label %44

36:                                               ; preds = %33
  %37 = load ptr, ptr %14, align 8, !tbaa !4
  %38 = getelementptr inbounds nuw %struct.Curl_cfilter, ptr %37, i32 0, i32 5
  %39 = load i8, ptr %38, align 4
  %40 = and i8 %39, 1
  %41 = zext i8 %40 to i32
  %42 = icmp ne i32 %41, 0
  %43 = xor i1 %42, true
  br label %44

44:                                               ; preds = %36, %33
  %45 = phi i1 [ false, %33 ], [ %43, %36 ]
  br i1 %45, label %46, label %50

46:                                               ; preds = %44
  %47 = load ptr, ptr %14, align 8, !tbaa !4
  %48 = getelementptr inbounds nuw %struct.Curl_cfilter, ptr %47, i32 0, i32 1
  %49 = load ptr, ptr %48, align 8, !tbaa !19
  store ptr %49, ptr %14, align 8, !tbaa !4
  br label %33, !llvm.loop !136

50:                                               ; preds = %44
  %51 = load ptr, ptr %14, align 8, !tbaa !4
  %52 = icmp ne ptr %51, null
  br i1 %52, label %53, label %74

53:                                               ; preds = %50
  call void @llvm.lifetime.start.p0(i64 8, ptr %15) #5
  %54 = load ptr, ptr %14, align 8, !tbaa !4
  %55 = getelementptr inbounds nuw %struct.Curl_cfilter, ptr %54, i32 0, i32 0
  %56 = load ptr, ptr %55, align 8, !tbaa !24
  %57 = getelementptr inbounds nuw %struct.Curl_cftype, ptr %56, i32 0, i32 10
  %58 = load ptr, ptr %57, align 8, !tbaa !59
  %59 = load ptr, ptr %14, align 8, !tbaa !4
  %60 = load ptr, ptr %8, align 8, !tbaa !9
  %61 = load ptr, ptr %10, align 8, !tbaa !57
  %62 = load i64, ptr %11, align 8, !tbaa !58
  %63 = load i8, ptr %12, align 1, !tbaa !13, !range !60, !noundef !61
  %64 = trunc i8 %63 to i1
  %65 = load ptr, ptr %13, align 8, !tbaa !57
  %66 = call i64 %58(ptr noundef %59, ptr noundef %60, ptr noundef %61, i64 noundef %62, i1 noundef zeroext %64, ptr noundef %65)
  store i64 %66, ptr %15, align 8, !tbaa !58
  br label %67

67:                                               ; preds = %53
  br label %68

68:                                               ; preds = %67
  br label %69

69:                                               ; preds = %68
  br label %70

70:                                               ; preds = %69
  br label %71

71:                                               ; preds = %70
  br label %72

72:                                               ; preds = %71
  %73 = load i64, ptr %15, align 8, !tbaa !58
  store i64 %73, ptr %7, align 8
  store i32 1, ptr %16, align 4
  call void @llvm.lifetime.end.p0(i64 8, ptr %15) #5
  br label %80

74:                                               ; preds = %50
  %75 = load ptr, ptr %8, align 8, !tbaa !9
  call void (ptr, ptr, ...) @Curl_failf(ptr noundef %75, ptr noundef @.str.5)
  br label %76

76:                                               ; preds = %74
  br label %77

77:                                               ; preds = %76
  br label %78

78:                                               ; preds = %77
  %79 = load ptr, ptr %13, align 8, !tbaa !57
  store i32 2, ptr %79, align 4, !tbaa !53
  store i64 -1, ptr %7, align 8
  store i32 1, ptr %16, align 4
  br label %80

80:                                               ; preds = %78, %72
  call void @llvm.lifetime.end.p0(i64 8, ptr %14) #5
  %81 = load i64, ptr %7, align 8
  ret i64 %81
}