; Function Attrs: nounwind uwtable
define dso_local i64 @Curl_cf_send(ptr noundef %0, i32 noundef %1, ptr noundef %2, i64 noundef %3, i1 noundef zeroext %4, ptr noundef initializes((0, 4)) %5) local_unnamed_addr #1 {
  store i32 0, ptr %5, align 4, !tbaa !44
  %7 = getelementptr inbounds nuw i8, ptr %0, i64 24
  %8 = load ptr, ptr %7, align 8, !tbaa !56
  %9 = getelementptr inbounds nuw i8, ptr %8, i64 608
  %10 = sext i32 %1 to i64
  %11 = getelementptr inbounds [2 x ptr], ptr %9, i64 0, i64 %10
  %.01721 = load ptr, ptr %11, align 8, !tbaa !51
  %.not22 = icmp eq ptr %.01721, null
  br i1 %.not22, label %.critedge19, label %.lr.ph

.lr.ph:                                           ; preds = %6, %15
  %.01723 = phi ptr [ %.017, %15 ], [ %.01721, %6 ]
  %12 = getelementptr inbounds nuw i8, ptr %.01723, i64 36
  %13 = load i8, ptr %12, align 4
  %14 = and i8 %13, 1
  %.not18 = icmp eq i8 %14, 0
  br i1 %.not18, label %15, label %.critedge

15:                                               ; preds = %.lr.ph
  %16 = getelementptr inbounds nuw i8, ptr %.01723, i64 8
  %.017 = load ptr, ptr %16, align 8, !tbaa !51
  %.not = icmp eq ptr %.017, null
  br i1 %.not, label %.critedge19, label %.lr.ph, !llvm.loop !123

.critedge:                                        ; preds = %.lr.ph
  %17 = load ptr, ptr %.01723, align 8, !tbaa !15
  %18 = getelementptr inbounds nuw i8, ptr %17, i64 72
  %19 = load ptr, ptr %18, align 8, !tbaa !46
  %20 = tail call i64 %19(ptr noundef nonnull %.01723, ptr noundef %0, ptr noundef %2, i64 noundef %3, i1 noundef zeroext %4, ptr noundef nonnull %5) #12
  br label %21

.critedge19:                                      ; preds = %15, %6
  tail call void (ptr, ptr, ...) @Curl_failf(ptr noundef %0, ptr noundef nonnull @.str.5) #12
  store i32 2, ptr %5, align 4, !tbaa !44
  br label %21

21:                                               ; preds = %.critedge19, %.critedge
  %.0 = phi i64 [ %20, %.critedge ], [ -1, %.critedge19 ]
  ret i64 %.0
}